target datalayout = "e-m:e-p270:32:32-p271:32:32-p272:64:64-i64:64-i128:128-f80:128-n8:16:32:64-S128"
target triple = "x86_64-pc-linux-gnu"

%struct.reassembly_table = type { ptr, ptr, ptr, ptr, ptr }
%struct.reassembly_table_functions = type { ptr, ptr, ptr, ptr, ptr, ptr }

@reload_topology_plugin = internal global ptr @.str.5, align 8
@.str.592 = private unnamed_addr constant [32 x i8] c"REsource LOcation And Discovery\00", align 1
@.str.593 = private unnamed_addr constant [7 x i8] c"RELOAD\00", align 1
@.str.594 = private unnamed_addr constant [7 x i8] c"reload\00", align 1
@proto_reload = internal global i32 0, align 4
@.str.595 = private unnamed_addr constant [14 x i8] c"Kind-ID Table\00", align 1
@.str.596 = private unnamed_addr constant [15 x i8] c"reload_kindids\00", align 1
@kindidlist_uats = internal global ptr null, align 8
@nreloadkinds = internal global i32 0, align 4
@reloadkindids_uat = internal global ptr null, align 8
@.str.597 = private unnamed_addr constant [13 x i8] c"kindid.table\00", align 1
@.str.598 = private unnamed_addr constant [13 x i8] c"Kind ID list\00", align 1
@.str.599 = private unnamed_addr constant [31 x i8] c"A table of Kind ID definitions\00", align 1
@.str.600 = private unnamed_addr constant [11 x i8] c"defragment\00", align 1
@.str.601 = private unnamed_addr constant [39 x i8] c"Reassemble fragmented reload datagrams\00", align 1
@.str.602 = private unnamed_addr constant [58 x i8] c"Whether fragmented RELOAD datagrams should be reassembled\00", align 1
@reload_defragment = internal global i8 1, align 1
@.str.603 = private unnamed_addr constant [14 x i8] c"nodeid_length\00", align 1
@.str.604 = private unnamed_addr constant [14 x i8] c"NodeId Length\00", align 1
@.str.605 = private unnamed_addr constant [48 x i8] c"Length of the NodeId as defined in the overlay.\00", align 1
@reload_nodeid_length = internal global i32 16, align 4
@.str.606 = private unnamed_addr constant [16 x i8] c"topology_plugin\00", align 1
@.str.607 = private unnamed_addr constant [16 x i8] c"topology plugin\00", align 1
@.str.608 = private unnamed_addr constant [39 x i8] c"topology plugin defined in the overlay\00", align 1
@reload_reassembly_table = internal global %struct.reassembly_table zeroinitializer, align 8
@addresses_reassembly_table_functions = external constant %struct.reassembly_table_functions, align 8

; Function Attrs: null_pointer_is_valid sspstrong uwtable
define hidden void @proto_register_reload() #0 {
  %1 = alloca ptr, align 8
  %2 = alloca ptr, align 8
  call void @llvm.lifetime.start.p0(i64 8, ptr %1) #8
  call void @llvm.lifetime.start.p0(i64 8, ptr %2) #8
  %3 = call i32 @proto_register_protocol(ptr noundef @.str.592, ptr noundef @.str.593, ptr noundef @.str.594)
  store i32 %3, ptr @proto_reload, align 4
  %4 = load i32, ptr @proto_reload, align 4
  %5 = call ptr @register_dissector(ptr noundef @.str.594, ptr noundef @dissect_reload_message, i32 noundef %4)
  %6 = load i32, ptr @proto_reload, align 4
  call void @proto_register_field_array(i32 noundef %6, ptr noundef @proto_register_reload.hf, i32 noundef 274)
  call void @proto_register_subtree_array(ptr noundef @proto_register_reload.ett, i32 noundef 106)
  %7 = load i32, ptr @proto_reload, align 4
  %8 = call ptr @expert_register_protocol(i32 noundef %7)
  store ptr %8, ptr %2, align 8
  %9 = load ptr, ptr %2, align 8
  call void @expert_register_field_array(ptr noundef %9, ptr noundef @proto_register_reload.ei, i32 noundef 6)
  %10 = load i32, ptr @proto_reload, align 4
  %11 = call ptr @prefs_register_protocol(i32 noundef %10, ptr noundef null)
  store ptr %11, ptr %1, align 8
  %12 = call ptr @uat_new(ptr noundef @.str.595, i64 noundef 16, ptr noundef @.str.596, i1 noundef zeroext true, ptr noundef @kindidlist_uats, ptr noundef @nreloadkinds, i32 noundef 1, ptr noundef null, ptr noundef @uat_kindid_copy_cb, ptr noundef null, ptr noundef @uat_kindid_record_free_cb, ptr noundef null, ptr noundef null, ptr noundef @proto_register_reload.reloadkindidlist_uats_flds)
  store ptr %12, ptr @reloadkindids_uat, align 8
  %13 = load ptr, ptr %1, align 8
  %14 = load ptr, ptr @reloadkindids_uat, align 8
  call void @prefs_register_uat_preference(ptr noundef %13, ptr noundef @.str.597, ptr noundef @.str.598, ptr noundef @.str.599, ptr noundef %14)
  %15 = load ptr, ptr %1, align 8
  call void @prefs_register_bool_preference(ptr noundef %15, ptr noundef @.str.600, ptr noundef @.str.601, ptr noundef @.str.602, ptr noundef @reload_defragment)
  %16 = load ptr, ptr %1, align 8
  call void @prefs_register_uint_preference(ptr noundef %16, ptr noundef @.str.603, ptr noundef @.str.604, ptr noundef @.str.605, i32 noundef 10, ptr noundef @reload_nodeid_length)
  %17 = load ptr, ptr %1, align 8
  call void @prefs_register_string_preference(ptr noundef %17, ptr noundef @.str.606, ptr noundef @.str.607, ptr noundef @.str.608, ptr noundef @reload_topology_plugin)
  call void @reassembly_table_register(ptr noundef @reload_reassembly_table, ptr noundef @addresses_reassembly_table_functions)
  call void @llvm.lifetime.end.p0(i64 8, ptr %2) #8
  call void @llvm.lifetime.end.p0(i64 8, ptr %1) #8
  ret void
}