; Function Attrs: null_pointer_is_valid sspstrong uwtable
define hidden void @proto_register_reload() local_unnamed_addr #0 {
  %1 = tail call i32 @proto_register_protocol(ptr noundef nonnull @.str.592, ptr noundef nonnull @.str.593, ptr noundef nonnull @.str.594)
  store i32 %1, ptr @proto_reload, align 4
  %2 = tail call ptr @register_dissector(ptr noundef nonnull @.str.594, ptr noundef nonnull @dissect_reload_message, i32 noundef %1)
  %3 = load i32, ptr @proto_reload, align 4
  tail call void @proto_register_field_array(i32 noundef %3, ptr noundef nonnull @proto_register_reload.hf, i32 noundef 274)
  tail call void @proto_register_subtree_array(ptr noundef nonnull @proto_register_reload.ett, i32 noundef 106)
  %4 = load i32, ptr @proto_reload, align 4
  %5 = tail call ptr @expert_register_protocol(i32 noundef %4)
  tail call void @expert_register_field_array(ptr noundef %5, ptr noundef nonnull @proto_register_reload.ei, i32 noundef 6)
  %6 = load i32, ptr @proto_reload, align 4
  %7 = tail call ptr @prefs_register_protocol(i32 noundef %6, ptr noundef null)
  %8 = tail call ptr @uat_new(ptr noundef nonnull @.str.595, i64 noundef 16, ptr noundef nonnull @.str.596, i1 noundef zeroext true, ptr noundef nonnull @kindidlist_uats, ptr noundef nonnull @nreloadkinds, i32 noundef 1, ptr noundef null, ptr noundef nonnull @uat_kindid_copy_cb, ptr noundef null, ptr noundef nonnull @uat_kindid_record_free_cb, ptr noundef null, ptr noundef null, ptr noundef nonnull @proto_register_reload.reloadkindidlist_uats_flds)
  store ptr %8, ptr @reloadkindids_uat, align 8
  tail call void @prefs_register_uat_preference(ptr noundef %7, ptr noundef nonnull @.str.597, ptr noundef nonnull @.str.598, ptr noundef nonnull @.str.599, ptr noundef %8)
  tail call void @prefs_register_bool_preference(ptr noundef %7, ptr noundef nonnull @.str.600, ptr noundef nonnull @.str.601, ptr noundef nonnull @.str.602, ptr noundef nonnull @reload_defragment)
  tail call void @prefs_register_uint_preference(ptr noundef %7, ptr noundef nonnull @.str.603, ptr noundef nonnull @.str.604, ptr noundef nonnull @.str.605, i32 noundef 10, ptr noundef nonnull @reload_nodeid_length)
  tail call void @prefs_register_string_preference(ptr noundef %7, ptr noundef nonnull @.str.606, ptr noundef nonnull @.str.607, ptr noundef nonnull @.str.608, ptr noundef nonnull @reload_topology_plugin)
  tail call void @reassembly_table_register(ptr noundef nonnull @reload_reassembly_table, ptr noundef nonnull @addresses_reassembly_table_functions)
  ret void
}